target datalayout = "e-m:e-p270:32:32-p271:32:32-p272:64:64-i64:64-i128:128-f80:128-n8:16:32:64-S128"
target triple = "x86_64-pc-linux-gnu"

%struct.evp_cipher_ctx_st = type { ptr, ptr, ptr, i32, i32, i32, [16 x i8], [16 x i8], [32 x i8], i32, i32, i32, i32, [32 x i8] }
%struct.EVP_RC2_KEY = type { i32, %struct.rc2_key_st }
%struct.rc2_key_st = type { [64 x i16] }

; Function Attrs: nounwind uwtable
define internal i32 @rc2_cbc_cipher(ptr noundef %0, ptr noundef %1, ptr noundef %2, i64 noundef %3) #0 {
  %5 = alloca ptr, align 8
  %6 = alloca ptr, align 8
  %7 = alloca ptr, align 8
  %8 = alloca i64, align 8
  %9 = alloca ptr, align 8
  store ptr %0, ptr %5, align 8, !tbaa !6
  store ptr %1, ptr %6, align 8, !tbaa !11
  store ptr %2, ptr %7, align 8, !tbaa !11
  store i64 %3, ptr %8, align 8, !tbaa !22
  call void @llvm.lifetime.start.p0(i64 8, ptr %9) #3
  %10 = load ptr, ptr %5, align 8, !tbaa !6
  %11 = getelementptr inbounds nuw %struct.evp_cipher_ctx_st, ptr %10, i32 0, i32 2
  %12 = load ptr, ptr %11, align 8, !tbaa !15
  store ptr %12, ptr %9, align 8, !tbaa !18
  br label %13

13:                                               ; preds = %16, %4
  %14 = load i64, ptr %8, align 8, !tbaa !22
  %15 = icmp uge i64 %14, 65536
  br i1 %15, label %16, label %33

16:                                               ; preds = %13
  %17 = load ptr, ptr %7, align 8, !tbaa !11
  %18 = load ptr, ptr %6, align 8, !tbaa !11
  %19 = load ptr, ptr %9, align 8, !tbaa !18
  %20 = getelementptr inbounds nuw %struct.EVP_RC2_KEY, ptr %19, i32 0, i32 1
  %21 = load ptr, ptr %5, align 8, !tbaa !6
  %22 = getelementptr inbounds nuw %struct.evp_cipher_ctx_st, ptr %21, i32 0, i32 7
  %23 = getelementptr inbounds [16 x i8], ptr %22, i64 0, i64 0
  %24 = load ptr, ptr %5, align 8, !tbaa !6
  %25 = getelementptr inbounds nuw %struct.evp_cipher_ctx_st, ptr %24, i32 0, i32 4
  %26 = load i32, ptr %25, align 4, !tbaa !24
  call void @RC2_cbc_encrypt(ptr noundef %17, ptr noundef %18, i64 noundef 65536, ptr noundef %20, ptr noundef %23, i32 noundef %26)
  %27 = load i64, ptr %8, align 8, !tbaa !22
  %28 = sub i64 %27, 65536
  store i64 %28, ptr %8, align 8, !tbaa !22
  %29 = load ptr, ptr %7, align 8, !tbaa !11
  %30 = getelementptr inbounds nuw i8, ptr %29, i64 65536
  store ptr %30, ptr %7, align 8, !tbaa !11
  %31 = load ptr, ptr %6, align 8, !tbaa !11
  %32 = getelementptr inbounds nuw i8, ptr %31, i64 65536
  store ptr %32, ptr %6, align 8, !tbaa !11
  br label %13, !llvm.loop !25

33:                                               ; preds = %13
  %34 = load i64, ptr %8, align 8, !tbaa !22
  %35 = icmp ne i64 %34, 0
  br i1 %35, label %36, label %48

36:                                               ; preds = %33
  %37 = load ptr, ptr %7, align 8, !tbaa !11
  %38 = load ptr, ptr %6, align 8, !tbaa !11
  %39 = load i64, ptr %8, align 8, !tbaa !22
  %40 = load ptr, ptr %9, align 8, !tbaa !18
  %41 = getelementptr inbounds nuw %struct.EVP_RC2_KEY, ptr %40, i32 0, i32 1
  %42 = load ptr, ptr %5, align 8, !tbaa !6
  %43 = getelementptr inbounds nuw %struct.evp_cipher_ctx_st, ptr %42, i32 0, i32 7
  %44 = getelementptr inbounds [16 x i8], ptr %43, i64 0, i64 0
  %45 = load ptr, ptr %5, align 8, !tbaa !6
  %46 = getelementptr inbounds nuw %struct.evp_cipher_ctx_st, ptr %45, i32 0, i32 4
  %47 = load i32, ptr %46, align 4, !tbaa !24
  call void @RC2_cbc_encrypt(ptr noundef %37, ptr noundef %38, i64 noundef %39, ptr noundef %41, ptr noundef %44, i32 noundef %47)
  br label %48

48:                                               ; preds = %36, %33
  call void @llvm.lifetime.end.p0(i64 8, ptr %9) #3
  ret i32 1
}