; Function Attrs: nofree norecurse nosync nounwind memory(readwrite, inaccessiblemem: none) uwtable
define internal noundef i32 @rc2_cbc_cipher(ptr noundef captures(none) %0, ptr noundef writeonly captures(none) %1, ptr noundef readonly captures(none) %2, i64 noundef %3) #2 {
  %5 = getelementptr inbounds nuw i8, ptr %0, i64 16
  %6 = load ptr, ptr %5, align 8, !tbaa !6
  %7 = icmp ugt i64 %3, 65535
  br i1 %7, label %.lr.ph, label %._crit_edge

.lr.ph:                                           ; preds = %4
  %8 = getelementptr inbounds nuw i8, ptr %6, i64 4
  %9 = getelementptr inbounds nuw i8, ptr %0, i64 52
  %10 = getelementptr inbounds nuw i8, ptr %0, i64 28
  br label %11

11:                                               ; preds = %.lr.ph, %11
  %.020 = phi ptr [ %1, %.lr.ph ], [ %15, %11 ]
  %.01619 = phi i64 [ %3, %.lr.ph ], [ %13, %11 ]
  %.01718 = phi ptr [ %2, %.lr.ph ], [ %14, %11 ]
  %12 = load i32, ptr %10, align 4, !tbaa !24
  tail call fastcc void @RC2_cbc_encrypt(ptr noundef %.01718, ptr noundef %.020, i64 noundef 65536, ptr noundef nonnull %8, ptr noundef nonnull %9, i32 noundef %12)
  %13 = add i64 %.01619, -65536
  %14 = getelementptr inbounds nuw i8, ptr %.01718, i64 65536
  %15 = getelementptr inbounds nuw i8, ptr %.020, i64 65536
  %16 = icmp ugt i64 %13, 65535
  br i1 %16, label %11, label %._crit_edge, !llvm.loop !25

._crit_edge:                                      ; preds = %11, %4
  %.017.lcssa = phi ptr [ %2, %4 ], [ %14, %11 ]
  %.016.lcssa = phi i64 [ %3, %4 ], [ %13, %11 ]
  %.0.lcssa = phi ptr [ %1, %4 ], [ %15, %11 ]
  %.not = icmp eq i64 %.016.lcssa, 0
  br i1 %.not, label %22, label %17

17:                                               ; preds = %._crit_edge
  %18 = getelementptr inbounds nuw i8, ptr %6, i64 4
  %19 = getelementptr inbounds nuw i8, ptr %0, i64 52
  %20 = getelementptr inbounds nuw i8, ptr %0, i64 28
  %21 = load i32, ptr %20, align 4, !tbaa !24
  tail call fastcc void @RC2_cbc_encrypt(ptr noundef %.017.lcssa, ptr noundef %.0.lcssa, i64 noundef %.016.lcssa, ptr noundef nonnull %18, ptr noundef nonnull %19, i32 noundef %21)
  br label %22

22:                                               ; preds = %17, %._crit_edge
  ret i32 1
}